; ModuleID = 'source-C-CXX/56/3402.c'
source_filename = "source-C-CXX/56/3402.c"
target datalayout = "e-m:e-p270:32:32-p271:32:32-p272:64:64-i64:64-f80:128-n8:16:32:64-S128"
target triple = "x86_64-pc-linux-gnu"

@.str = private unnamed_addr constant [3 x i8] c"%d\00", align 1
@.str.1 = private unnamed_addr constant [3 x i8] c"%s\00", align 1

; Function Attrs: nofree nounwind sspstrong uwtable
define dso_local i32 @main() local_unnamed_addr #0 {
  %1 = alloca [100 x i8], align 16
  %2 = alloca i32, align 4
  %3 = getelementptr inbounds [100 x i8], [100 x i8]* %1, i64 0, i64 0
  call void @llvm.lifetime.start.p0i8(i64 100, i8* nonnull %3) #4
  %4 = bitcast i32* %2 to i8*
  call void @llvm.lifetime.start.p0i8(i64 4, i8* nonnull %4) #4
  %5 = call i32 (i8*, ...) @__isoc99_scanf(i8* getelementptr inbounds ([3 x i8], [3 x i8]* @.str, i64 0, i64 0), i32* nonnull %2)
  %6 = load i32, i32* %2, align 4, !tbaa !5
  %7 = icmp sgt i32 %6, 0
  br i1 %7, label %8, label %60

8:                                                ; preds = %0, %55
  %9 = call i32 (i8*, ...) @__isoc99_scanf(i8* getelementptr inbounds ([3 x i8], [3 x i8]* @.str.1, i64 0, i64 0), i8* nonnull %3)
  br label %10

10:                                               ; preds = %51, %8
  %11 = phi i64 [ %52, %51 ], [ 0, %8 ]
  %12 = getelementptr inbounds [100 x i8], [100 x i8]* %1, i64 0, i64 %11
  %13 = load i8, i8* %12, align 1, !tbaa !9
  switch i8 %13, label %14 [
    i8 0, label %55
    i8 101, label %16
    i8 108, label %26
    i8 105, label %36
  ]

14:                                               ; preds = %10
  %15 = add nuw i64 %11, 1
  br label %51

16:                                               ; preds = %10
  %17 = add nuw i64 %11, 1
  %18 = getelementptr inbounds [100 x i8], [100 x i8]* %1, i64 0, i64 %17
  %19 = load i8, i8* %18, align 1, !tbaa !9
  %20 = icmp eq i8 %19, 114
  br i1 %20, label %21, label %51

21:                                               ; preds = %16
  %22 = add nuw nsw i64 %11, 2
  %23 = getelementptr inbounds [100 x i8], [100 x i8]* %1, i64 0, i64 %22
  %24 = load i8, i8* %23, align 1, !tbaa !9
  %25 = icmp eq i8 %24, 0
  br i1 %25, label %55, label %51

26:                                               ; preds = %10
  %27 = add nuw i64 %11, 1
  %28 = getelementptr inbounds [100 x i8], [100 x i8]* %1, i64 0, i64 %27
  %29 = load i8, i8* %28, align 1, !tbaa !9
  %30 = icmp eq i8 %29, 121
  br i1 %30, label %31, label %51

31:                                               ; preds = %26
  %32 = add nuw nsw i64 %11, 2
  %33 = getelementptr inbounds [100 x i8], [100 x i8]* %1, i64 0, i64 %32
  %34 = load i8, i8* %33, align 1, !tbaa !9
  %35 = icmp eq i8 %34, 0
  br i1 %35, label %55, label %51

36:                                               ; preds = %10
  %37 = add nuw i64 %11, 1
  %38 = getelementptr inbounds [100 x i8], [100 x i8]* %1, i64 0, i64 %37
  %39 = load i8, i8* %38, align 1, !tbaa !9
  %40 = icmp eq i8 %39, 110
  br i1 %40, label %41, label %51

41:                                               ; preds = %36
  %42 = add nuw nsw i64 %11, 2
  %43 = getelementptr inbounds [100 x i8], [100 x i8]* %1, i64 0, i64 %42
  %44 = load i8, i8* %43, align 1, !tbaa !9
  %45 = icmp eq i8 %44, 103
  br i1 %45, label %46, label %51

46:                                               ; preds = %41
  %47 = add nuw nsw i64 %11, 3
  %48 = getelementptr inbounds [100 x i8], [100 x i8]* %1, i64 0, i64 %47
  %49 = load i8, i8* %48, align 1, !tbaa !9
  %50 = icmp eq i8 %49, 0
  br i1 %50, label %55, label %51

51:                                               ; preds = %14, %16, %21, %26, %31, %46, %41, %36
  %52 = phi i64 [ %15, %14 ], [ %17, %16 ], [ %17, %21 ], [ %27, %26 ], [ %27, %31 ], [ %37, %46 ], [ %37, %41 ], [ %37, %36 ]
  %53 = sext i8 %13 to i32
  %54 = call i32 @putchar(i32 %53)
  br label %10, !llvm.loop !10

55:                                               ; preds = %10, %21, %31, %46
  %56 = call i32 @putchar(i32 10)
  %57 = load i32, i32* %2, align 4, !tbaa !5
  %58 = add nsw i32 %57, -1
  store i32 %58, i32* %2, align 4, !tbaa !5
  %59 = icmp sgt i32 %57, 1
  br i1 %59, label %8, label %60, !llvm.loop !12

60:                                               ; preds = %55, %0
  call void @llvm.lifetime.end.p0i8(i64 4, i8* nonnull %4) #4
  call void @llvm.lifetime.end.p0i8(i64 100, i8* nonnull %3) #4
  ret i32 0
}

; Function Attrs: argmemonly mustprogress nofree nosync nounwind willreturn
declare void @llvm.lifetime.start.p0i8(i64 immarg, i8* nocapture) #1

; Function Attrs: nofree nounwind
declare noundef i32 @__isoc99_scanf(i8* nocapture noundef readonly, ...) local_unnamed_addr #2

; Function Attrs: argmemonly mustprogress nofree nosync nounwind willreturn
declare void @llvm.lifetime.end.p0i8(i64 immarg, i8* nocapture) #1

; Function Attrs: nofree nounwind
declare noundef i32 @putchar(i32 noundef) local_unnamed_addr #3


!llvm.module.flags = !{!0, !1, !2, !3}
!llvm.ident = !{!4}

!0 = !{i32 1, !"wchar_size", i32 4}
!1 = !{i32 7, !"PIC Level", i32 2}
!2 = !{i32 7, !"PIE Level", i32 2}
!3 = !{i32 7, !"uwtable", i32 1}
!4 = !{!"clang version 13.0.0"}
!5 = !{!6, !6, i64 0}
!6 = !{!"int", !7, i64 0}
!7 = !{!"omnipotent char", !8, i64 0}
!8 = !{!"Simple C/C++ TBAA"}
!9 = !{!7, !7, i64 0}
!10 = distinct !{!10, !11}
!11 = !{!"llvm.loop.mustprogress"}
!12 = distinct !{!12, !11}
